
USART2.elf:     file format elf32-littlearm

Sections:
Idx Name          Size      VMA       LMA       File off  Algn
  0 .isr_vector   00000194  08000000  08000000  00010000  2**0
                  CONTENTS, ALLOC, LOAD, READONLY, DATA
  1 .text         00000590  08000194  08000194  00010194  2**2
                  CONTENTS, ALLOC, LOAD, READONLY, CODE
  2 .rodata       00000000  08000724  0800072c  0001072c  2**0
                  CONTENTS, ALLOC, LOAD, DATA
  3 .ARM.extab    00000000  08000724  08000724  0001072c  2**0
                  CONTENTS
  4 .ARM          00000000  08000724  08000724  0001072c  2**0
                  CONTENTS
  5 .preinit_array 00000000  08000724  0800072c  0001072c  2**0
                  CONTENTS, ALLOC, LOAD, DATA
  6 .init_array   00000004  08000724  08000724  00010724  2**2
                  CONTENTS, ALLOC, LOAD, DATA
  7 .fini_array   00000004  08000728  08000728  00010728  2**2
                  CONTENTS, ALLOC, LOAD, DATA
  8 .data         00000000  20000000  20000000  0001072c  2**0
                  CONTENTS, ALLOC, LOAD, DATA
  9 .bss          0000001c  20000000  0800072c  00020000  2**2
                  ALLOC
 10 ._user_heap_stack 00000604  2000001c  0800072c  0002001c  2**0
                  ALLOC
 11 .ARM.attributes 00000030  00000000  00000000  0001072c  2**0
                  CONTENTS, READONLY
 12 .debug_info   000009d2  00000000  00000000  0001075c  2**0
                  CONTENTS, READONLY, DEBUGGING, OCTETS
 13 .debug_abbrev 000003fa  00000000  00000000  0001112e  2**0
                  CONTENTS, READONLY, DEBUGGING, OCTETS
 14 .debug_aranges 00000108  00000000  00000000  00011528  2**3
                  CONTENTS, READONLY, DEBUGGING, OCTETS
 15 .debug_ranges 000000b0  00000000  00000000  00011630  2**3
                  CONTENTS, READONLY, DEBUGGING, OCTETS
 16 .debug_macro  000020ba  00000000  00000000  000116e0  2**0
                  CONTENTS, READONLY, DEBUGGING, OCTETS
 17 .debug_line   00000a4f  00000000  00000000  0001379a  2**0
                  CONTENTS, READONLY, DEBUGGING, OCTETS
 18 .debug_str    00009234  00000000  00000000  000141e9  2**0
                  CONTENTS, READONLY, DEBUGGING, OCTETS
 19 .comment      00000050  00000000  00000000  0001d41d  2**0
                  CONTENTS, READONLY
 20 .debug_frame  00000268  00000000  00000000  0001d470  2**2
                  CONTENTS, READONLY, DEBUGGING, OCTETS

Disassembly of section .text:

08000194 <__do_global_dtors_aux>:
 8000194:	b510      	push	{r4, lr}
 8000196:	4c05      	ldr	r4, [pc, #20]	; (80001ac <__do_global_dtors_aux+0x18>)
 8000198:	7823      	ldrb	r3, [r4, #0]
 800019a:	b933      	cbnz	r3, 80001aa <__do_global_dtors_aux+0x16>
 800019c:	4b04      	ldr	r3, [pc, #16]	; (80001b0 <__do_global_dtors_aux+0x1c>)
 800019e:	b113      	cbz	r3, 80001a6 <__do_global_dtors_aux+0x12>
 80001a0:	4804      	ldr	r0, [pc, #16]	; (80001b4 <__do_global_dtors_aux+0x20>)
 80001a2:	f3af 8000 	nop.w
 80001a6:	2301      	movs	r3, #1
 80001a8:	7023      	strb	r3, [r4, #0]
 80001aa:	bd10      	pop	{r4, pc}
 80001ac:	20000000 	.word	0x20000000
 80001b0:	00000000 	.word	0x00000000
 80001b4:	0800070c 	.word	0x0800070c

080001b8 <frame_dummy>:
 80001b8:	b508      	push	{r3, lr}
 80001ba:	4b03      	ldr	r3, [pc, #12]	; (80001c8 <frame_dummy+0x10>)
 80001bc:	b11b      	cbz	r3, 80001c6 <frame_dummy+0xe>
 80001be:	4903      	ldr	r1, [pc, #12]	; (80001cc <frame_dummy+0x14>)
 80001c0:	4803      	ldr	r0, [pc, #12]	; (80001d0 <frame_dummy+0x18>)
 80001c2:	f3af 8000 	nop.w
 80001c6:	bd08      	pop	{r3, pc}
 80001c8:	00000000 	.word	0x00000000
 80001cc:	20000004 	.word	0x20000004
 80001d0:	0800070c 	.word	0x0800070c

080001d4 <GPIO_SetPinValue>:
#include "GPIO_register.h"
#include "GPIO_private.h"


u8  GPIO_SetPinValue(u8 Copy_u8Pin, u8 Copy_u8Port, u8 Copy_u8Value)
{	
 80001d4:	b480      	push	{r7}
 80001d6:	b085      	sub	sp, #20
 80001d8:	af00      	add	r7, sp, #0
 80001da:	4603      	mov	r3, r0
 80001dc:	71fb      	strb	r3, [r7, #7]
 80001de:	460b      	mov	r3, r1
 80001e0:	71bb      	strb	r3, [r7, #6]
 80001e2:	4613      	mov	r3, r2
 80001e4:	717b      	strb	r3, [r7, #5]
	u8 Local_u8ErrorState=FALSE;
 80001e6:	2300      	movs	r3, #0
 80001e8:	73fb      	strb	r3, [r7, #15]
	if ((Copy_u8Pin < GPIO_u8NumOfPins)&&(Copy_u8Port < GPIO_u8NumOfPorts))
 80001ea:	79fb      	ldrb	r3, [r7, #7]
 80001ec:	2b0f      	cmp	r3, #15
 80001ee:	d841      	bhi.n	8000274 <GPIO_SetPinValue+0xa0>
 80001f0:	79bb      	ldrb	r3, [r7, #6]
 80001f2:	2b02      	cmp	r3, #2
 80001f4:	d83e      	bhi.n	8000274 <GPIO_SetPinValue+0xa0>
	{
		switch(Copy_u8Port)
 80001f6:	79bb      	ldrb	r3, [r7, #6]
 80001f8:	2b02      	cmp	r3, #2
 80001fa:	d028      	beq.n	800024e <GPIO_SetPinValue+0x7a>
 80001fc:	2b02      	cmp	r3, #2
 80001fe:	dc37      	bgt.n	8000270 <GPIO_SetPinValue+0x9c>
 8000200:	2b00      	cmp	r3, #0
 8000202:	d002      	beq.n	800020a <GPIO_SetPinValue+0x36>
 8000204:	2b01      	cmp	r3, #1
 8000206:	d011      	beq.n	800022c <GPIO_SetPinValue+0x58>
 8000208:	e032      	b.n	8000270 <GPIO_SetPinValue+0x9c>
		{ case GPIO_PORTA: ASSIGN_BIT(REG_GPIO_PORTA->ODR,Copy_u8Pin, Copy_u8Value);break;
 800020a:	4b1e      	ldr	r3, [pc, #120]	; (8000284 <GPIO_SetPinValue+0xb0>)
 800020c:	695b      	ldr	r3, [r3, #20]
 800020e:	79fa      	ldrb	r2, [r7, #7]
 8000210:	2101      	movs	r1, #1
 8000212:	fa01 f202 	lsl.w	r2, r1, r2
 8000216:	43d2      	mvns	r2, r2
 8000218:	4013      	ands	r3, r2
 800021a:	7979      	ldrb	r1, [r7, #5]
 800021c:	79fa      	ldrb	r2, [r7, #7]
 800021e:	fa01 f202 	lsl.w	r2, r1, r2
 8000222:	4611      	mov	r1, r2
 8000224:	4a17      	ldr	r2, [pc, #92]	; (8000284 <GPIO_SetPinValue+0xb0>)
 8000226:	430b      	orrs	r3, r1
 8000228:	6153      	str	r3, [r2, #20]
 800022a:	e021      	b.n	8000270 <GPIO_SetPinValue+0x9c>
		  case GPIO_PORTB: ASSIGN_BIT(REG_GPIO_PORTB->ODR,Copy_u8Pin, Copy_u8Value);break;
 800022c:	4b16      	ldr	r3, [pc, #88]	; (8000288 <GPIO_SetPinValue+0xb4>)
 800022e:	695b      	ldr	r3, [r3, #20]
 8000230:	79fa      	ldrb	r2, [r7, #7]
 8000232:	2101      	movs	r1, #1
 8000234:	fa01 f202 	lsl.w	r2, r1, r2
 8000238:	43d2      	mvns	r2, r2
 800023a:	4013      	ands	r3, r2
 800023c:	7979      	ldrb	r1, [r7, #5]
 800023e:	79fa      	ldrb	r2, [r7, #7]
 8000240:	fa01 f202 	lsl.w	r2, r1, r2
 8000244:	4611      	mov	r1, r2
 8000246:	4a10      	ldr	r2, [pc, #64]	; (8000288 <GPIO_SetPinValue+0xb4>)
 8000248:	430b      	orrs	r3, r1
 800024a:	6153      	str	r3, [r2, #20]
 800024c:	e010      	b.n	8000270 <GPIO_SetPinValue+0x9c>
		  case GPIO_PORTC: ASSIGN_BIT(REG_GPIO_PORTC->ODR,Copy_u8Pin, Copy_u8Value);break;
 800024e:	4b0f      	ldr	r3, [pc, #60]	; (800028c <GPIO_SetPinValue+0xb8>)
 8000250:	695b      	ldr	r3, [r3, #20]
 8000252:	79fa      	ldrb	r2, [r7, #7]
 8000254:	2101      	movs	r1, #1
 8000256:	fa01 f202 	lsl.w	r2, r1, r2
 800025a:	43d2      	mvns	r2, r2
 800025c:	4013      	ands	r3, r2
 800025e:	7979      	ldrb	r1, [r7, #5]
 8000260:	79fa      	ldrb	r2, [r7, #7]
 8000262:	fa01 f202 	lsl.w	r2, r1, r2
 8000266:	4611      	mov	r1, r2
 8000268:	4a08      	ldr	r2, [pc, #32]	; (800028c <GPIO_SetPinValue+0xb8>)
 800026a:	430b      	orrs	r3, r1
 800026c:	6153      	str	r3, [r2, #20]
 800026e:	bf00      	nop
		}
	   Local_u8ErrorState=TRUE;
 8000270:	2301      	movs	r3, #1
 8000272:	73fb      	strb	r3, [r7, #15]
	   
	}
		
	return Local_u8ErrorState;
 8000274:	7bfb      	ldrb	r3, [r7, #15]
}
 8000276:	4618      	mov	r0, r3
 8000278:	3714      	adds	r7, #20
 800027a:	46bd      	mov	sp, r7
 800027c:	f85d 7b04 	ldr.w	r7, [sp], #4
 8000280:	4770      	bx	lr
 8000282:	bf00      	nop
 8000284:	40020000 	.word	0x40020000
 8000288:	40020400 	.word	0x40020400
 800028c:	40020800 	.word	0x40020800

08000290 <PORT_voidInit>:
#include"PORT_private.h"
#include"PORT_config.h"
#include"PORT_interface.h"

void PORT_voidInit(void)
{
 8000290:	b480      	push	{r7}
 8000292:	af00      	add	r7, sp, #0
	
	GPIOA_MODER = GPIOA_Mode;
 8000294:	4b27      	ldr	r3, [pc, #156]	; (8000334 <PORT_voidInit+0xa4>)
 8000296:	4a28      	ldr	r2, [pc, #160]	; (8000338 <PORT_voidInit+0xa8>)
 8000298:	601a      	str	r2, [r3, #0]
	GPIOB_MODER = GPIOB_Mode;
 800029a:	4b28      	ldr	r3, [pc, #160]	; (800033c <PORT_voidInit+0xac>)
 800029c:	4a28      	ldr	r2, [pc, #160]	; (8000340 <PORT_voidInit+0xb0>)
 800029e:	601a      	str	r2, [r3, #0]
	GPIOC_MODER = GPIOC_Mode;
 80002a0:	4b28      	ldr	r3, [pc, #160]	; (8000344 <PORT_voidInit+0xb4>)
 80002a2:	f04f 42a8 	mov.w	r2, #1409286144	; 0x54000000
 80002a6:	601a      	str	r2, [r3, #0]
	
	GPIOA_OTYPER = GPIOA_Output_Type ;
 80002a8:	4b27      	ldr	r3, [pc, #156]	; (8000348 <PORT_voidInit+0xb8>)
 80002aa:	2200      	movs	r2, #0
 80002ac:	601a      	str	r2, [r3, #0]
	GPIOB_OTYPER = GPIOB_Output_Type ;
 80002ae:	4b27      	ldr	r3, [pc, #156]	; (800034c <PORT_voidInit+0xbc>)
 80002b0:	2200      	movs	r2, #0
 80002b2:	601a      	str	r2, [r3, #0]
	GPIOC_OTYPER = GPIOC_Output_Type ;
 80002b4:	4b26      	ldr	r3, [pc, #152]	; (8000350 <PORT_voidInit+0xc0>)
 80002b6:	2200      	movs	r2, #0
 80002b8:	601a      	str	r2, [r3, #0]
	
	GPIOA_OSPEEDR = GPIOA_Speed;
 80002ba:	4b26      	ldr	r3, [pc, #152]	; (8000354 <PORT_voidInit+0xc4>)
 80002bc:	4a26      	ldr	r2, [pc, #152]	; (8000358 <PORT_voidInit+0xc8>)
 80002be:	601a      	str	r2, [r3, #0]
	GPIOB_OSPEEDR = GPIOB_Speed;
 80002c0:	4b26      	ldr	r3, [pc, #152]	; (800035c <PORT_voidInit+0xcc>)
 80002c2:	4a27      	ldr	r2, [pc, #156]	; (8000360 <PORT_voidInit+0xd0>)
 80002c4:	601a      	str	r2, [r3, #0]
	GPIOC_OSPEEDR = GPIOC_Speed;
 80002c6:	4b27      	ldr	r3, [pc, #156]	; (8000364 <PORT_voidInit+0xd4>)
 80002c8:	f04f 42a8 	mov.w	r2, #1409286144	; 0x54000000
 80002cc:	601a      	str	r2, [r3, #0]
	
	GPIOA_PUPDR = GPIOA_PUPD;
 80002ce:	4b26      	ldr	r3, [pc, #152]	; (8000368 <PORT_voidInit+0xd8>)
 80002d0:	4a26      	ldr	r2, [pc, #152]	; (800036c <PORT_voidInit+0xdc>)
 80002d2:	601a      	str	r2, [r3, #0]
	GPIOB_PUPDR = GPIOB_PUPD;
 80002d4:	4b26      	ldr	r3, [pc, #152]	; (8000370 <PORT_voidInit+0xe0>)
 80002d6:	4a22      	ldr	r2, [pc, #136]	; (8000360 <PORT_voidInit+0xd0>)
 80002d8:	601a      	str	r2, [r3, #0]
	GPIOC_PUPDR = GPIOC_PUPD;
 80002da:	4b26      	ldr	r3, [pc, #152]	; (8000374 <PORT_voidInit+0xe4>)
 80002dc:	f04f 42a8 	mov.w	r2, #1409286144	; 0x54000000
 80002e0:	601a      	str	r2, [r3, #0]
	

    GPIOA_AFRL|=(GPIOA_AF<< GPIOx_AFRL0);
 80002e2:	4b25      	ldr	r3, [pc, #148]	; (8000378 <PORT_voidInit+0xe8>)
 80002e4:	681b      	ldr	r3, [r3, #0]
 80002e6:	4a24      	ldr	r2, [pc, #144]	; (8000378 <PORT_voidInit+0xe8>)
 80002e8:	f043 33bb 	orr.w	r3, r3, #3149642683	; 0xbbbbbbbb
 80002ec:	6013      	str	r3, [r2, #0]
	GPIOB_AFRL|=(GPIOB_AF<< GPIOx_AFRL0);
 80002ee:	4b23      	ldr	r3, [pc, #140]	; (800037c <PORT_voidInit+0xec>)
 80002f0:	681b      	ldr	r3, [r3, #0]
 80002f2:	4a22      	ldr	r2, [pc, #136]	; (800037c <PORT_voidInit+0xec>)
 80002f4:	f043 33bb 	orr.w	r3, r3, #3149642683	; 0xbbbbbbbb
 80002f8:	6013      	str	r3, [r2, #0]
	GPIOC_AFRL|=(GPIOC_AF<< GPIOx_AFRL0);
 80002fa:	4b21      	ldr	r3, [pc, #132]	; (8000380 <PORT_voidInit+0xf0>)
 80002fc:	4a20      	ldr	r2, [pc, #128]	; (8000380 <PORT_voidInit+0xf0>)
 80002fe:	681b      	ldr	r3, [r3, #0]
 8000300:	6013      	str	r3, [r2, #0]
								
    GPIOA_AFRH|= (GPIOA_AF>> 32);
 8000302:	4b20      	ldr	r3, [pc, #128]	; (8000384 <PORT_voidInit+0xf4>)
 8000304:	681a      	ldr	r2, [r3, #0]
 8000306:	491f      	ldr	r1, [pc, #124]	; (8000384 <PORT_voidInit+0xf4>)
 8000308:	4b1f      	ldr	r3, [pc, #124]	; (8000388 <PORT_voidInit+0xf8>)
 800030a:	4313      	orrs	r3, r2
 800030c:	600b      	str	r3, [r1, #0]
	GPIOB_AFRH|= (GPIOB_AF>> 32);
 800030e:	4b1f      	ldr	r3, [pc, #124]	; (800038c <PORT_voidInit+0xfc>)
 8000310:	681a      	ldr	r2, [r3, #0]
 8000312:	491e      	ldr	r1, [pc, #120]	; (800038c <PORT_voidInit+0xfc>)
 8000314:	4b1e      	ldr	r3, [pc, #120]	; (8000390 <PORT_voidInit+0x100>)
 8000316:	4313      	orrs	r3, r2
 8000318:	600b      	str	r3, [r1, #0]
	GPIOC_AFRH|= (GPIOC_AF>> 32);
 800031a:	4b1e      	ldr	r3, [pc, #120]	; (8000394 <PORT_voidInit+0x104>)
 800031c:	681b      	ldr	r3, [r3, #0]
 800031e:	4a1d      	ldr	r2, [pc, #116]	; (8000394 <PORT_voidInit+0x104>)
 8000320:	f043 433b 	orr.w	r3, r3, #3137339392	; 0xbb000000
 8000324:	f443 0330 	orr.w	r3, r3, #11534336	; 0xb00000
 8000328:	6013      	str	r3, [r2, #0]
	
	
	
}
 800032a:	bf00      	nop
 800032c:	46bd      	mov	sp, r7
 800032e:	f85d 7b04 	ldr.w	r7, [sp], #4
 8000332:	4770      	bx	lr
 8000334:	40020000 	.word	0x40020000
 8000338:	69695555 	.word	0x69695555
 800033c:	40020400 	.word	0x40020400
 8000340:	55151555 	.word	0x55151555
 8000344:	40020800 	.word	0x40020800
 8000348:	40020004 	.word	0x40020004
 800034c:	40020404 	.word	0x40020404
 8000350:	40020804 	.word	0x40020804
 8000354:	40020008 	.word	0x40020008
 8000358:	41555555 	.word	0x41555555
 800035c:	40020408 	.word	0x40020408
 8000360:	55155555 	.word	0x55155555
 8000364:	40020808 	.word	0x40020808
 8000368:	4002000c 	.word	0x4002000c
 800036c:	65555559 	.word	0x65555559
 8000370:	4002040c 	.word	0x4002040c
 8000374:	4002080c 	.word	0x4002080c
 8000378:	40020020 	.word	0x40020020
 800037c:	40020420 	.word	0x40020420
 8000380:	40020820 	.word	0x40020820
 8000384:	40020024 	.word	0x40020024
 8000388:	b00bb77b 	.word	0xb00bb77b
 800038c:	40020424 	.word	0x40020424
 8000390:	bbbb0bbb 	.word	0xbbbb0bbb
 8000394:	40020824 	.word	0x40020824

08000398 <RCC_voidSysClkInit>:
#include"RCC_config.h"
#include"RCC_interface.h"


void	RCC_voidSysClkInit(void)
{
 8000398:	b480      	push	{r7}
 800039a:	af00      	add	r7, sp, #0

    /******************MCO1,2 Prescaler*************/
  	RCC->CFGR|=(Microcontroller_Clk1_Prescaler<<RCC_CFGR_MCO1PRE0);
 800039c:	4b37      	ldr	r3, [pc, #220]	; (800047c <RCC_voidSysClkInit+0xe4>)
 800039e:	689b      	ldr	r3, [r3, #8]
 80003a0:	4a36      	ldr	r2, [pc, #216]	; (800047c <RCC_voidSysClkInit+0xe4>)
 80003a2:	f043 6380 	orr.w	r3, r3, #67108864	; 0x4000000
 80003a6:	6093      	str	r3, [r2, #8]
	RCC->CFGR|=(Microcontroller_Clk2_Prescaler<<RCC_CFGR_MCO2PRE0);
 80003a8:	4b34      	ldr	r3, [pc, #208]	; (800047c <RCC_voidSysClkInit+0xe4>)
 80003aa:	689b      	ldr	r3, [r3, #8]
 80003ac:	4a33      	ldr	r2, [pc, #204]	; (800047c <RCC_voidSysClkInit+0xe4>)
 80003ae:	f043 5300 	orr.w	r3, r3, #536870912	; 0x20000000
 80003b2:	6093      	str	r3, [r2, #8]

    /******************MCO1,2 Source Selection*************/
	RCC->CFGR|=(Microcontroller_Clk_Output1<<RCC_CFGR_MCO10);
 80003b4:	4b31      	ldr	r3, [pc, #196]	; (800047c <RCC_voidSysClkInit+0xe4>)
 80003b6:	689b      	ldr	r3, [r3, #8]
 80003b8:	4a30      	ldr	r2, [pc, #192]	; (800047c <RCC_voidSysClkInit+0xe4>)
 80003ba:	f443 0380 	orr.w	r3, r3, #4194304	; 0x400000
 80003be:	6093      	str	r3, [r2, #8]
  	RCC->CFGR|=(Microcontroller_Clk_Output2<<RCC_CFGR_MCO20);
 80003c0:	4b2e      	ldr	r3, [pc, #184]	; (800047c <RCC_voidSysClkInit+0xe4>)
 80003c2:	4a2e      	ldr	r2, [pc, #184]	; (800047c <RCC_voidSysClkInit+0xe4>)
 80003c4:	689b      	ldr	r3, [r3, #8]
 80003c6:	6093      	str	r3, [r2, #8]


    /*************** Clock Security System ***************/
  	RCC->CR|=(RCC_u8CSSON<<RCC_CR_CSSON);
 80003c8:	4b2c      	ldr	r3, [pc, #176]	; (800047c <RCC_voidSysClkInit+0xe4>)
 80003ca:	681b      	ldr	r3, [r3, #0]
 80003cc:	4a2b      	ldr	r2, [pc, #172]	; (800047c <RCC_voidSysClkInit+0xe4>)
 80003ce:	f443 2300 	orr.w	r3, r3, #524288	; 0x80000
 80003d2:	6013      	str	r3, [r2, #0]

	/*************** Clock Source Switch ***************/
  	RCC->CFGR|=(System_Clk_Source<<RCC_CFGR_SW0);
 80003d4:	4b29      	ldr	r3, [pc, #164]	; (800047c <RCC_voidSysClkInit+0xe4>)
 80003d6:	4a29      	ldr	r2, [pc, #164]	; (800047c <RCC_voidSysClkInit+0xe4>)
 80003d8:	689b      	ldr	r3, [r3, #8]
 80003da:	6093      	str	r3, [r2, #8]

	/****************** AHB Prescaler ******************/
  	RCC->CFGR|=(RCC_u8AHB_PRESCALER<<RCC_CFGR_HPRE0);
 80003dc:	4b27      	ldr	r3, [pc, #156]	; (800047c <RCC_voidSysClkInit+0xe4>)
 80003de:	4a27      	ldr	r2, [pc, #156]	; (800047c <RCC_voidSysClkInit+0xe4>)
 80003e0:	689b      	ldr	r3, [r3, #8]
 80003e2:	6093      	str	r3, [r2, #8]


	/****************** APB1 Prescaler ******************/
  	RCC->CFGR|=(RCC_u8APB1_PRESCALER<<RCC_CFGR_PPRE10);
 80003e4:	4b25      	ldr	r3, [pc, #148]	; (800047c <RCC_voidSysClkInit+0xe4>)
 80003e6:	4a25      	ldr	r2, [pc, #148]	; (800047c <RCC_voidSysClkInit+0xe4>)
 80003e8:	689b      	ldr	r3, [r3, #8]
 80003ea:	6093      	str	r3, [r2, #8]
	/****************** APB2 Prescaler ******************/
	
  	RCC->CFGR|=(RCC_u8APB2_PRESCALER<<RCC_CFGR_PPRE20);
 80003ec:	4b23      	ldr	r3, [pc, #140]	; (800047c <RCC_voidSysClkInit+0xe4>)
 80003ee:	4a23      	ldr	r2, [pc, #140]	; (800047c <RCC_voidSysClkInit+0xe4>)
 80003f0:	689b      	ldr	r3, [r3, #8]
 80003f2:	6093      	str	r3, [r2, #8]



	
	#if RCC_u8PLL_Mode==RCC_u8Clk_Enable
  	RCC->PLLCFGR=0;
 80003f4:	4b21      	ldr	r3, [pc, #132]	; (800047c <RCC_voidSysClkInit+0xe4>)
 80003f6:	2200      	movs	r2, #0
 80003f8:	605a      	str	r2, [r3, #4]
  	RCC->PLLCFGR|=(PLL_InClk_Division_Factor<<RCC_PLLCFGR_PLLM0);
 80003fa:	4b20      	ldr	r3, [pc, #128]	; (800047c <RCC_voidSysClkInit+0xe4>)
 80003fc:	685b      	ldr	r3, [r3, #4]
 80003fe:	4a1f      	ldr	r2, [pc, #124]	; (800047c <RCC_voidSysClkInit+0xe4>)
 8000400:	f043 0302 	orr.w	r3, r3, #2
 8000404:	6053      	str	r3, [r2, #4]
  	RCC->PLLCFGR|=(PLL_VCO_Multiplication_Factor<<RCC_PLLCFGR_PLLN0);
 8000406:	4b1d      	ldr	r3, [pc, #116]	; (800047c <RCC_voidSysClkInit+0xe4>)
 8000408:	685b      	ldr	r3, [r3, #4]
 800040a:	4a1c      	ldr	r2, [pc, #112]	; (800047c <RCC_voidSysClkInit+0xe4>)
 800040c:	f443 5340 	orr.w	r3, r3, #12288	; 0x3000
 8000410:	6053      	str	r3, [r2, #4]
  	RCC->PLLCFGR|=(PLL_MainClk_Division_Factor<<RCC_PLLCFGR_PLLP0);
 8000412:	4b1a      	ldr	r3, [pc, #104]	; (800047c <RCC_voidSysClkInit+0xe4>)
 8000414:	685b      	ldr	r3, [r3, #4]
 8000416:	4a19      	ldr	r2, [pc, #100]	; (800047c <RCC_voidSysClkInit+0xe4>)
 8000418:	f443 3380 	orr.w	r3, r3, #65536	; 0x10000
 800041c:	6053      	str	r3, [r2, #4]
  	RCC->PLLCFGR|=(PLL_Clk_Source<<RCC_PLLCFGR_PLLSRC);
 800041e:	4b17      	ldr	r3, [pc, #92]	; (800047c <RCC_voidSysClkInit+0xe4>)
 8000420:	4a16      	ldr	r2, [pc, #88]	; (800047c <RCC_voidSysClkInit+0xe4>)
 8000422:	685b      	ldr	r3, [r3, #4]
 8000424:	6053      	str	r3, [r2, #4]
  	RCC->PLLCFGR|=(PLL_USB_OTG_Division_Factor<<RCC_PLLCFGR_PLLQ0);
 8000426:	4b15      	ldr	r3, [pc, #84]	; (800047c <RCC_voidSysClkInit+0xe4>)
 8000428:	685b      	ldr	r3, [r3, #4]
 800042a:	4a14      	ldr	r2, [pc, #80]	; (800047c <RCC_voidSysClkInit+0xe4>)
 800042c:	f043 7300 	orr.w	r3, r3, #33554432	; 0x2000000
 8000430:	6053      	str	r3, [r2, #4]

	
  	RCC->CR|=(RCC_u8PLL_Mode<<RCC_CR_PLLON);
 8000432:	4b12      	ldr	r3, [pc, #72]	; (800047c <RCC_voidSysClkInit+0xe4>)
 8000434:	681b      	ldr	r3, [r3, #0]
 8000436:	4a11      	ldr	r2, [pc, #68]	; (800047c <RCC_voidSysClkInit+0xe4>)
 8000438:	f043 7380 	orr.w	r3, r3, #16777216	; 0x1000000
 800043c:	6013      	str	r3, [r2, #0]

	while(!GET_BIT(RCC->CR,RCC_CR_PLLRDY));
 800043e:	bf00      	nop
 8000440:	4b0e      	ldr	r3, [pc, #56]	; (800047c <RCC_voidSysClkInit+0xe4>)
 8000442:	681b      	ldr	r3, [r3, #0]

	#endif
	
	#if RCC_u8HSEON_Mode==RCC_u8Clk_Enable
	/*************** Clock By Pass Enable ***************/
  	RCC->CR|=(RCC_u8HSEPYB<<RCC_CR_HSEBYP);
 8000444:	4b0d      	ldr	r3, [pc, #52]	; (800047c <RCC_voidSysClkInit+0xe4>)
 8000446:	4a0d      	ldr	r2, [pc, #52]	; (800047c <RCC_voidSysClkInit+0xe4>)
 8000448:	681b      	ldr	r3, [r3, #0]
 800044a:	6013      	str	r3, [r2, #0]
  	RCC->CR|=(RCC_u8HSEON_Mode<<RCC_CR_HSEON);
 800044c:	4b0b      	ldr	r3, [pc, #44]	; (800047c <RCC_voidSysClkInit+0xe4>)
 800044e:	681b      	ldr	r3, [r3, #0]
 8000450:	4a0a      	ldr	r2, [pc, #40]	; (800047c <RCC_voidSysClkInit+0xe4>)
 8000452:	f443 3380 	orr.w	r3, r3, #65536	; 0x10000
 8000456:	6013      	str	r3, [r2, #0]

	while(!GET_BIT(RCC->CR,RCC_CR_HSIRDY));
 8000458:	bf00      	nop
 800045a:	4b08      	ldr	r3, [pc, #32]	; (800047c <RCC_voidSysClkInit+0xe4>)
 800045c:	681b      	ldr	r3, [r3, #0]

    #endif
	
	#if RCC_u8HSION_Mode==RCC_u8Clk_Enable
  	RCC->CR|=(RCC_u8HSION_Mode<<RCC_CR_HSION);
 800045e:	4b07      	ldr	r3, [pc, #28]	; (800047c <RCC_voidSysClkInit+0xe4>)
 8000460:	681b      	ldr	r3, [r3, #0]
 8000462:	4a06      	ldr	r2, [pc, #24]	; (800047c <RCC_voidSysClkInit+0xe4>)
 8000464:	f043 0301 	orr.w	r3, r3, #1
 8000468:	6013      	str	r3, [r2, #0]

	while(!GET_BIT(RCC->CR,RCC_CR_HSERDY));
 800046a:	bf00      	nop
 800046c:	4b03      	ldr	r3, [pc, #12]	; (800047c <RCC_voidSysClkInit+0xe4>)
 800046e:	681b      	ldr	r3, [r3, #0]

    #endif	
	
}
 8000470:	bf00      	nop
 8000472:	46bd      	mov	sp, r7
 8000474:	f85d 7b04 	ldr.w	r7, [sp], #4
 8000478:	4770      	bx	lr
 800047a:	bf00      	nop
 800047c:	40023800 	.word	0x40023800

08000480 <RCC_voidEnablePeripheralClk>:
  
u8	RCC_voidEnablePeripheralClk(u8 RCC_u8CopyBus,Peripherals_t RCC_u8CopyPeripheral)
{
 8000480:	b480      	push	{r7}
 8000482:	b085      	sub	sp, #20
 8000484:	af00      	add	r7, sp, #0
 8000486:	4603      	mov	r3, r0
 8000488:	460a      	mov	r2, r1
 800048a:	71fb      	strb	r3, [r7, #7]
 800048c:	4613      	mov	r3, r2
 800048e:	71bb      	strb	r3, [r7, #6]
	u8 Local_u8Error=OK;
 8000490:	2301      	movs	r3, #1
 8000492:	73fb      	strb	r3, [r7, #15]
	if (RCC_u8CopyPeripheral<32)
 8000494:	79bb      	ldrb	r3, [r7, #6]
 8000496:	2b1f      	cmp	r3, #31
 8000498:	d83d      	bhi.n	8000516 <RCC_voidEnablePeripheralClk+0x96>
	{
		switch(RCC_u8CopyBus)
 800049a:	79fb      	ldrb	r3, [r7, #7]
 800049c:	2b03      	cmp	r3, #3
 800049e:	d837      	bhi.n	8000510 <RCC_voidEnablePeripheralClk+0x90>
 80004a0:	a201      	add	r2, pc, #4	; (adr r2, 80004a8 <RCC_voidEnablePeripheralClk+0x28>)
 80004a2:	f852 f023 	ldr.w	pc, [r2, r3, lsl #2]
 80004a6:	bf00      	nop
 80004a8:	080004b9 	.word	0x080004b9
 80004ac:	080004cf 	.word	0x080004cf
 80004b0:	080004e5 	.word	0x080004e5
 80004b4:	080004fb 	.word	0x080004fb
		{
			case RCC_AHB1: SET_BIT(RCC->AHB1ENR,RCC_u8CopyPeripheral);break;
 80004b8:	4b1b      	ldr	r3, [pc, #108]	; (8000528 <RCC_voidEnablePeripheralClk+0xa8>)
 80004ba:	6b1b      	ldr	r3, [r3, #48]	; 0x30
 80004bc:	79ba      	ldrb	r2, [r7, #6]
 80004be:	2101      	movs	r1, #1
 80004c0:	fa01 f202 	lsl.w	r2, r1, r2
 80004c4:	4611      	mov	r1, r2
 80004c6:	4a18      	ldr	r2, [pc, #96]	; (8000528 <RCC_voidEnablePeripheralClk+0xa8>)
 80004c8:	430b      	orrs	r3, r1
 80004ca:	6313      	str	r3, [r2, #48]	; 0x30
 80004cc:	e025      	b.n	800051a <RCC_voidEnablePeripheralClk+0x9a>
			case RCC_AHB2: SET_BIT(RCC->AHB2ENR,RCC_u8CopyPeripheral);break;
 80004ce:	4b16      	ldr	r3, [pc, #88]	; (8000528 <RCC_voidEnablePeripheralClk+0xa8>)
 80004d0:	6b5b      	ldr	r3, [r3, #52]	; 0x34
 80004d2:	79ba      	ldrb	r2, [r7, #6]
 80004d4:	2101      	movs	r1, #1
 80004d6:	fa01 f202 	lsl.w	r2, r1, r2
 80004da:	4611      	mov	r1, r2
 80004dc:	4a12      	ldr	r2, [pc, #72]	; (8000528 <RCC_voidEnablePeripheralClk+0xa8>)
 80004de:	430b      	orrs	r3, r1
 80004e0:	6353      	str	r3, [r2, #52]	; 0x34
 80004e2:	e01a      	b.n	800051a <RCC_voidEnablePeripheralClk+0x9a>
			case RCC_APB1: SET_BIT(RCC->APB1ENR,RCC_u8CopyPeripheral);break;
 80004e4:	4b10      	ldr	r3, [pc, #64]	; (8000528 <RCC_voidEnablePeripheralClk+0xa8>)
 80004e6:	6c1b      	ldr	r3, [r3, #64]	; 0x40
 80004e8:	79ba      	ldrb	r2, [r7, #6]
 80004ea:	2101      	movs	r1, #1
 80004ec:	fa01 f202 	lsl.w	r2, r1, r2
 80004f0:	4611      	mov	r1, r2
 80004f2:	4a0d      	ldr	r2, [pc, #52]	; (8000528 <RCC_voidEnablePeripheralClk+0xa8>)
 80004f4:	430b      	orrs	r3, r1
 80004f6:	6413      	str	r3, [r2, #64]	; 0x40
 80004f8:	e00f      	b.n	800051a <RCC_voidEnablePeripheralClk+0x9a>
			case RCC_APB2: SET_BIT(RCC->APB2ENR,RCC_u8CopyPeripheral);break;
 80004fa:	4b0b      	ldr	r3, [pc, #44]	; (8000528 <RCC_voidEnablePeripheralClk+0xa8>)
 80004fc:	6c5b      	ldr	r3, [r3, #68]	; 0x44
 80004fe:	79ba      	ldrb	r2, [r7, #6]
 8000500:	2101      	movs	r1, #1
 8000502:	fa01 f202 	lsl.w	r2, r1, r2
 8000506:	4611      	mov	r1, r2
 8000508:	4a07      	ldr	r2, [pc, #28]	; (8000528 <RCC_voidEnablePeripheralClk+0xa8>)
 800050a:	430b      	orrs	r3, r1
 800050c:	6453      	str	r3, [r2, #68]	; 0x44
 800050e:	e004      	b.n	800051a <RCC_voidEnablePeripheralClk+0x9a>
			default : Local_u8Error =NOK;
 8000510:	2300      	movs	r3, #0
 8000512:	73fb      	strb	r3, [r7, #15]
 8000514:	e001      	b.n	800051a <RCC_voidEnablePeripheralClk+0x9a>
			
	}
	else
	{
		
		Local_u8Error =NOK;
 8000516:	2300      	movs	r3, #0
 8000518:	73fb      	strb	r3, [r7, #15]
		
	}
		
		
	return Local_u8Error;
 800051a:	7bfb      	ldrb	r3, [r7, #15]
	
	
}
 800051c:	4618      	mov	r0, r3
 800051e:	3714      	adds	r7, #20
 8000520:	46bd      	mov	sp, r7
 8000522:	f85d 7b04 	ldr.w	r7, [sp], #4
 8000526:	4770      	bx	lr
 8000528:	40023800 	.word	0x40023800

0800052c <USART1_voidInit>:
 * Return type : void                              *
 * Arguments   : void                              *
 * description : Sets the Baud Rate                *
 **************************************************/
void USART1_voidInit(void)
{
 800052c:	b480      	push	{r7}
 800052e:	af00      	add	r7, sp, #0
	/* Set the Baud Rate */
	USART1->BRR = USART1_BAUD_RATE;
 8000530:	4b16      	ldr	r3, [pc, #88]	; (800058c <USART1_voidInit+0x60>)
 8000532:	f240 6282 	movw	r2, #1666	; 0x682
 8000536:	609a      	str	r2, [r3, #8]

	/**************Stop Bit*********************/
	USART1->CR2|=(USART1_Stop_Bit<<USART_CR2_STOP0);
 8000538:	4b14      	ldr	r3, [pc, #80]	; (800058c <USART1_voidInit+0x60>)
 800053a:	4a14      	ldr	r2, [pc, #80]	; (800058c <USART1_voidInit+0x60>)
 800053c:	691b      	ldr	r3, [r3, #16]
 800053e:	6113      	str	r3, [r2, #16]
	
	/**************Parity Bit*********************/
	USART1->CR1|=(USART1_Parity_Selection<<USART_CR1_PS);
 8000540:	4b12      	ldr	r3, [pc, #72]	; (800058c <USART1_voidInit+0x60>)
 8000542:	4a12      	ldr	r2, [pc, #72]	; (800058c <USART1_voidInit+0x60>)
 8000544:	68db      	ldr	r3, [r3, #12]
 8000546:	60d3      	str	r3, [r2, #12]
	USART1->CR1|=(USART1_Parity_Mode<<USART_CR1_PCE);
 8000548:	4b10      	ldr	r3, [pc, #64]	; (800058c <USART1_voidInit+0x60>)
 800054a:	4a10      	ldr	r2, [pc, #64]	; (800058c <USART1_voidInit+0x60>)
 800054c:	68db      	ldr	r3, [r3, #12]
 800054e:	60d3      	str	r3, [r2, #12]

	/*************Word Length*********************/
	USART1->CR1|=(USART1_Word_Length<<USART_CR1_M);
 8000550:	4b0e      	ldr	r3, [pc, #56]	; (800058c <USART1_voidInit+0x60>)
 8000552:	4a0e      	ldr	r2, [pc, #56]	; (800058c <USART1_voidInit+0x60>)
 8000554:	68db      	ldr	r3, [r3, #12]
 8000556:	60d3      	str	r3, [r2, #12]

	/*************Transmitter Enable*********************/
	USART1->CR1|=(USART1_Transmitter_Mode<<USART_CR1_TE);
 8000558:	4b0c      	ldr	r3, [pc, #48]	; (800058c <USART1_voidInit+0x60>)
 800055a:	68db      	ldr	r3, [r3, #12]
 800055c:	4a0b      	ldr	r2, [pc, #44]	; (800058c <USART1_voidInit+0x60>)
 800055e:	f043 0308 	orr.w	r3, r3, #8
 8000562:	60d3      	str	r3, [r2, #12]
	/*************Receiver Enable*********************/
	USART1->CR1|=(USART1_Receiver_Mode<<USART_CR1_RE);
 8000564:	4b09      	ldr	r3, [pc, #36]	; (800058c <USART1_voidInit+0x60>)
 8000566:	68db      	ldr	r3, [r3, #12]
 8000568:	4a08      	ldr	r2, [pc, #32]	; (800058c <USART1_voidInit+0x60>)
 800056a:	f043 0304 	orr.w	r3, r3, #4
 800056e:	60d3      	str	r3, [r2, #12]

	/*************USART Enable*********************/
	USART1->CR1|=(USART1_Mode<<USART_CR1_UE);
 8000570:	4b06      	ldr	r3, [pc, #24]	; (800058c <USART1_voidInit+0x60>)
 8000572:	68db      	ldr	r3, [r3, #12]
 8000574:	4a05      	ldr	r2, [pc, #20]	; (800058c <USART1_voidInit+0x60>)
 8000576:	f443 5300 	orr.w	r3, r3, #8192	; 0x2000
 800057a:	60d3      	str	r3, [r2, #12]

	USART1->SR=0;
 800057c:	4b03      	ldr	r3, [pc, #12]	; (800058c <USART1_voidInit+0x60>)
 800057e:	2200      	movs	r2, #0
 8000580:	601a      	str	r2, [r3, #0]

}
 8000582:	bf00      	nop
 8000584:	46bd      	mov	sp, r7
 8000586:	f85d 7b04 	ldr.w	r7, [sp], #4
 800058a:	4770      	bx	lr
 800058c:	40011000 	.word	0x40011000

08000590 <USART1_voidSendData>:
void USART1_voidSendData(u8 Copy_u8Data)
{
 8000590:	b480      	push	{r7}
 8000592:	b083      	sub	sp, #12
 8000594:	af00      	add	r7, sp, #0
 8000596:	4603      	mov	r3, r0
 8000598:	71fb      	strb	r3, [r7, #7]
	while(GET_BIT(USART1->SR,USART_SR_TXE)==0);
 800059a:	bf00      	nop
 800059c:	4b0d      	ldr	r3, [pc, #52]	; (80005d4 <USART1_voidSendData+0x44>)
 800059e:	681b      	ldr	r3, [r3, #0]
 80005a0:	f003 0380 	and.w	r3, r3, #128	; 0x80
 80005a4:	2b00      	cmp	r3, #0
 80005a6:	d0f9      	beq.n	800059c <USART1_voidSendData+0xc>
	USART1->DR=Copy_u8Data;
 80005a8:	4a0a      	ldr	r2, [pc, #40]	; (80005d4 <USART1_voidSendData+0x44>)
 80005aa:	79fb      	ldrb	r3, [r7, #7]
 80005ac:	6053      	str	r3, [r2, #4]
	
	/* wait until transmission is complete */
	while(GET_BIT(USART1->SR, USART_SR_TC) == 0);
 80005ae:	bf00      	nop
 80005b0:	4b08      	ldr	r3, [pc, #32]	; (80005d4 <USART1_voidSendData+0x44>)
 80005b2:	681b      	ldr	r3, [r3, #0]
 80005b4:	f003 0340 	and.w	r3, r3, #64	; 0x40
 80005b8:	2b00      	cmp	r3, #0
 80005ba:	d0f9      	beq.n	80005b0 <USART1_voidSendData+0x20>

	/* clear TC flag */
	CLEAR_BIT(USART1->SR, USART_SR_TC);
 80005bc:	4b05      	ldr	r3, [pc, #20]	; (80005d4 <USART1_voidSendData+0x44>)
 80005be:	681b      	ldr	r3, [r3, #0]
 80005c0:	4a04      	ldr	r2, [pc, #16]	; (80005d4 <USART1_voidSendData+0x44>)
 80005c2:	f023 0340 	bic.w	r3, r3, #64	; 0x40
 80005c6:	6013      	str	r3, [r2, #0]

}
 80005c8:	bf00      	nop
 80005ca:	370c      	adds	r7, #12
 80005cc:	46bd      	mov	sp, r7
 80005ce:	f85d 7b04 	ldr.w	r7, [sp], #4
 80005d2:	4770      	bx	lr
 80005d4:	40011000 	.word	0x40011000

080005d8 <USART1_voidSynchReceiveData>:
void USART1_voidSynchReceiveData(u8* Ptr_u8Data)
{
 80005d8:	b480      	push	{r7}
 80005da:	b083      	sub	sp, #12
 80005dc:	af00      	add	r7, sp, #0
 80005de:	6078      	str	r0, [r7, #4]
	/* Check for the Pointer */
	if(Ptr_u8Data != NULL)
 80005e0:	687b      	ldr	r3, [r7, #4]
 80005e2:	2b00      	cmp	r3, #0
 80005e4:	d00b      	beq.n	80005fe <USART1_voidSynchReceiveData+0x26>
	{
		/* Wait until Reception is complete */
		while(!(GET_BIT(USART1->SR, USART_SR_RXNE)));
 80005e6:	bf00      	nop
 80005e8:	4b08      	ldr	r3, [pc, #32]	; (800060c <USART1_voidSynchReceiveData+0x34>)
 80005ea:	681b      	ldr	r3, [r3, #0]
 80005ec:	f003 0320 	and.w	r3, r3, #32
 80005f0:	2b00      	cmp	r3, #0
 80005f2:	d0f9      	beq.n	80005e8 <USART1_voidSynchReceiveData+0x10>

		/* Store the Data to the Pointer */
		*(Ptr_u8Data) = USART1->DR;
 80005f4:	4b05      	ldr	r3, [pc, #20]	; (800060c <USART1_voidSynchReceiveData+0x34>)
 80005f6:	685b      	ldr	r3, [r3, #4]
 80005f8:	b2da      	uxtb	r2, r3
 80005fa:	687b      	ldr	r3, [r7, #4]
 80005fc:	701a      	strb	r2, [r3, #0]
	else
	{
		
	}
	
}
 80005fe:	bf00      	nop
 8000600:	370c      	adds	r7, #12
 8000602:	46bd      	mov	sp, r7
 8000604:	f85d 7b04 	ldr.w	r7, [sp], #4
 8000608:	4770      	bx	lr
 800060a:	bf00      	nop
 800060c:	40011000 	.word	0x40011000

08000610 <main>:

#include"LED_interface.h"


int main(void)
{
 8000610:	b580      	push	{r7, lr}
 8000612:	b082      	sub	sp, #8
 8000614:	af00      	add	r7, sp, #0

	  RCC_voidSysClkInit();
 8000616:	f7ff febf 	bl	8000398 <RCC_voidSysClkInit>
	  RCC_voidEnablePeripheralClk(RCC_AHB1,GPIOA);
 800061a:	2100      	movs	r1, #0
 800061c:	2000      	movs	r0, #0
 800061e:	f7ff ff2f 	bl	8000480 <RCC_voidEnablePeripheralClk>
	  RCC_voidEnablePeripheralClk(RCC_AHB1,GPIOB);
 8000622:	2101      	movs	r1, #1
 8000624:	2000      	movs	r0, #0
 8000626:	f7ff ff2b 	bl	8000480 <RCC_voidEnablePeripheralClk>

	  RCC_voidEnablePeripheralClk(RCC_APB2,USART1);
 800062a:	2104      	movs	r1, #4
 800062c:	2003      	movs	r0, #3
 800062e:	f7ff ff27 	bl	8000480 <RCC_voidEnablePeripheralClk>

	  PORT_voidInit();
 8000632:	f7ff fe2d 	bl	8000290 <PORT_voidInit>
	  USART1_voidInit();
 8000636:	f7ff ff79 	bl	800052c <USART1_voidInit>
	   // LED_Object LED2={Source_Connection_type,GPIO_PORTA,GPIO_PIN2};



	  u8 DATA;
		   USART1_voidSynchReceiveData(&DATA);
 800063a:	1dfb      	adds	r3, r7, #7
 800063c:	4618      	mov	r0, r3
 800063e:	f7ff ffcb 	bl	80005d8 <USART1_voidSynchReceiveData>

	    USART1_voidSendData('1');
 8000642:	2031      	movs	r0, #49	; 0x31
 8000644:	f7ff ffa4 	bl	8000590 <USART1_voidSendData>
	    USART1_voidSendData('4');
 8000648:	2034      	movs	r0, #52	; 0x34
 800064a:	f7ff ffa1 	bl	8000590 <USART1_voidSendData>
	   /* USART1_voidSendData('3');
	    USART1_voidSendData('4');*/

	    if(DATA == '5')
 800064e:	79fb      	ldrb	r3, [r7, #7]
 8000650:	2b35      	cmp	r3, #53	; 0x35
 8000652:	d104      	bne.n	800065e <main+0x4e>
	    {
	    	GPIO_SetPinValue(GPIO_PIN0,GPIO_PORTB,GPIO_PIN_HIGH);
 8000654:	2201      	movs	r2, #1
 8000656:	2101      	movs	r1, #1
 8000658:	2000      	movs	r0, #0
 800065a:	f7ff fdbb 	bl	80001d4 <GPIO_SetPinValue>
	    }
	    if(DATA == 'r')
 800065e:	79fb      	ldrb	r3, [r7, #7]
 8000660:	2b72      	cmp	r3, #114	; 0x72
 8000662:	d104      	bne.n	800066e <main+0x5e>
	    {
	    	GPIO_SetPinValue(GPIO_PIN1,GPIO_PORTB,GPIO_PIN_HIGH);
 8000664:	2201      	movs	r2, #1
 8000666:	2101      	movs	r1, #1
 8000668:	2001      	movs	r0, #1
 800066a:	f7ff fdb3 	bl	80001d4 <GPIO_SetPinValue>
	    }




		while(1)
 800066e:	e7fe      	b.n	800066e <main+0x5e>

08000670 <Reset_Handler>:

  .section .text.Reset_Handler
  .weak Reset_Handler
  .type Reset_Handler, %function
Reset_Handler:
  ldr   r0, =_estack
 8000670:	480d      	ldr	r0, [pc, #52]	; (80006a8 <LoopForever+0x2>)
  mov   sp, r0          /* set stack pointer */
 8000672:	4685      	mov	sp, r0
/* Call the clock system initialization function.*/
  bl  SystemInit
 8000674:	f3af 8000 	nop.w

/* Copy the data segment initializers from flash to SRAM */
  ldr r0, =_sdata
 8000678:	480c      	ldr	r0, [pc, #48]	; (80006ac <LoopForever+0x6>)
  ldr r1, =_edata
 800067a:	490d      	ldr	r1, [pc, #52]	; (80006b0 <LoopForever+0xa>)
  ldr r2, =_sidata
 800067c:	4a0d      	ldr	r2, [pc, #52]	; (80006b4 <LoopForever+0xe>)
  movs r3, #0
 800067e:	2300      	movs	r3, #0
  b LoopCopyDataInit
 8000680:	e002      	b.n	8000688 <LoopCopyDataInit>

08000682 <CopyDataInit>:

CopyDataInit:
  ldr r4, [r2, r3]
 8000682:	58d4      	ldr	r4, [r2, r3]
  str r4, [r0, r3]
 8000684:	50c4      	str	r4, [r0, r3]
  adds r3, r3, #4
 8000686:	3304      	adds	r3, #4

08000688 <LoopCopyDataInit>:

LoopCopyDataInit:
  adds r4, r0, r3
 8000688:	18c4      	adds	r4, r0, r3
  cmp r4, r1
 800068a:	428c      	cmp	r4, r1
  bcc CopyDataInit
 800068c:	d3f9      	bcc.n	8000682 <CopyDataInit>

/* Zero fill the bss segment. */
  ldr r2, =_sbss
 800068e:	4a0a      	ldr	r2, [pc, #40]	; (80006b8 <LoopForever+0x12>)
  ldr r4, =_ebss
 8000690:	4c0a      	ldr	r4, [pc, #40]	; (80006bc <LoopForever+0x16>)
  movs r3, #0
 8000692:	2300      	movs	r3, #0
  b LoopFillZerobss
 8000694:	e001      	b.n	800069a <LoopFillZerobss>

08000696 <FillZerobss>:

FillZerobss:
  str  r3, [r2]
 8000696:	6013      	str	r3, [r2, #0]
  adds r2, r2, #4
 8000698:	3204      	adds	r2, #4

0800069a <LoopFillZerobss>:

LoopFillZerobss:
  cmp r2, r4
 800069a:	42a2      	cmp	r2, r4
  bcc FillZerobss
 800069c:	d3fb      	bcc.n	8000696 <FillZerobss>

/* Call static constructors */
  bl __libc_init_array
 800069e:	f000 f811 	bl	80006c4 <__libc_init_array>
/* Call the application's entry point.*/
  bl main
 80006a2:	f7ff ffb5 	bl	8000610 <main>

080006a6 <LoopForever>:

LoopForever:
    b LoopForever
 80006a6:	e7fe      	b.n	80006a6 <LoopForever>
  ldr   r0, =_estack
 80006a8:	20010000 	.word	0x20010000
  ldr r0, =_sdata
 80006ac:	20000000 	.word	0x20000000
  ldr r1, =_edata
 80006b0:	20000000 	.word	0x20000000
  ldr r2, =_sidata
 80006b4:	0800072c 	.word	0x0800072c
  ldr r2, =_sbss
 80006b8:	20000000 	.word	0x20000000
  ldr r4, =_ebss
 80006bc:	2000001c 	.word	0x2000001c

080006c0 <ADC_IRQHandler>:
 * @retval : None
*/
  .section .text.Default_Handler,"ax",%progbits
Default_Handler:
Infinite_Loop:
  b Infinite_Loop
 80006c0:	e7fe      	b.n	80006c0 <ADC_IRQHandler>
	...

080006c4 <__libc_init_array>:
 80006c4:	b570      	push	{r4, r5, r6, lr}
 80006c6:	4d0d      	ldr	r5, [pc, #52]	; (80006fc <__libc_init_array+0x38>)
 80006c8:	4c0d      	ldr	r4, [pc, #52]	; (8000700 <__libc_init_array+0x3c>)
 80006ca:	1b64      	subs	r4, r4, r5
 80006cc:	10a4      	asrs	r4, r4, #2
 80006ce:	2600      	movs	r6, #0
 80006d0:	42a6      	cmp	r6, r4
 80006d2:	d109      	bne.n	80006e8 <__libc_init_array+0x24>
 80006d4:	4d0b      	ldr	r5, [pc, #44]	; (8000704 <__libc_init_array+0x40>)
 80006d6:	4c0c      	ldr	r4, [pc, #48]	; (8000708 <__libc_init_array+0x44>)
 80006d8:	f000 f818 	bl	800070c <_init>
 80006dc:	1b64      	subs	r4, r4, r5
 80006de:	10a4      	asrs	r4, r4, #2
 80006e0:	2600      	movs	r6, #0
 80006e2:	42a6      	cmp	r6, r4
 80006e4:	d105      	bne.n	80006f2 <__libc_init_array+0x2e>
 80006e6:	bd70      	pop	{r4, r5, r6, pc}
 80006e8:	f855 3b04 	ldr.w	r3, [r5], #4
 80006ec:	4798      	blx	r3
 80006ee:	3601      	adds	r6, #1
 80006f0:	e7ee      	b.n	80006d0 <__libc_init_array+0xc>
 80006f2:	f855 3b04 	ldr.w	r3, [r5], #4
 80006f6:	4798      	blx	r3
 80006f8:	3601      	adds	r6, #1
 80006fa:	e7f2      	b.n	80006e2 <__libc_init_array+0x1e>
 80006fc:	08000724 	.word	0x08000724
 8000700:	08000724 	.word	0x08000724
 8000704:	08000724 	.word	0x08000724
 8000708:	08000728 	.word	0x08000728

0800070c <_init>:
 800070c:	b5f8      	push	{r3, r4, r5, r6, r7, lr}
 800070e:	bf00      	nop
 8000710:	bcf8      	pop	{r3, r4, r5, r6, r7}
 8000712:	bc08      	pop	{r3}
 8000714:	469e      	mov	lr, r3
 8000716:	4770      	bx	lr

08000718 <_fini>:
 8000718:	b5f8      	push	{r3, r4, r5, r6, r7, lr}
 800071a:	bf00      	nop
 800071c:	bcf8      	pop	{r3, r4, r5, r6, r7}
 800071e:	bc08      	pop	{r3}
 8000720:	469e      	mov	lr, r3
 8000722:	4770      	bx	lr
